target datalayout = "e-m:e-p270:32:32-p271:32:32-p272:64:64-i64:64-i128:128-f80:128-n8:16:32:64-S128"
target triple = "x86_64-pc-linux-gnu"

%class.V3ErrorCode = type { i8 }

; Function Attrs: mustprogress nounwind uwtable
define linkonce_odr dso_local void @_ZN11V3ErrorCodeC2ENS_2enE(ptr noundef nonnull align 1 dereferenceable(1) %0, i8 noundef zeroext %1) unnamed_addr #6 comdat align 2 {
  %3 = alloca ptr, align 8
  %4 = alloca i8, align 1
  store ptr %0, ptr %3, align 8, !tbaa !9
  store i8 %1, ptr %4, align 1, !tbaa !26
  %5 = load ptr, ptr %3, align 8
  %6 = getelementptr inbounds nuw %class.V3ErrorCode, ptr %5, i32 0, i32 0
  %7 = load i8, ptr %4, align 1, !tbaa !26
  store i8 %7, ptr %6, align 1, !tbaa !15
  ret void
}

; Function Attrs: mustprogress uwtable
define linkonce_odr dso_local i8 @_ZNK11V3ErrorCode9renamedToEv(ptr noundef nonnull align 1 dereferenceable(1) %0) #4 comdat align 2 {
  %2 = alloca %class.V3ErrorCode, align 1
  %3 = alloca ptr, align 8
  store ptr %0, ptr %3, align 8, !tbaa !9
  %4 = load ptr, ptr %3, align 8
  %5 = getelementptr inbounds nuw %class.V3ErrorCode, ptr %4, i32 0, i32 0
  %6 = load i8, ptr %5, align 1, !tbaa !15
  %7 = zext i8 %6 to i32
  %8 = icmp eq i32 %7, 65
  br i1 %8, label %9, label %10

9:                                                ; preds = %1
  call void @_ZN11V3ErrorCodeC2ENS_2enE(ptr noundef nonnull align 1 dereferenceable(1) %2, i8 noundef zeroext 22)
  br label %11

10:                                               ; preds = %1
  call void @_ZN11V3ErrorCodeC2ENS_2enE(ptr noundef nonnull align 1 dereferenceable(1) %2, i8 noundef zeroext 0)
  br label %11

11:                                               ; preds = %10, %9
  %12 = getelementptr inbounds nuw %class.V3ErrorCode, ptr %2, i32 0, i32 0
  %13 = load i8, ptr %12, align 1
  ret i8 %13
}

; Function Attrs: mustprogress uwtable
define linkonce_odr dso_local noundef zeroext i1 @_ZNK11V3ErrorCode9isRenamedEv(ptr noundef nonnull align 1 dereferenceable(1) %0) #4 comdat align 2 {
  %2 = alloca ptr, align 8
  %3 = alloca %class.V3ErrorCode, align 1
  %4 = alloca %class.V3ErrorCode, align 1
  store ptr %0, ptr %2, align 8, !tbaa !9
  %5 = load ptr, ptr %2, align 8
  call void @llvm.lifetime.start.p0(i64 1, ptr %3) #3
  %6 = call i8 @_ZNK11V3ErrorCode9renamedToEv(ptr noundef nonnull align 1 dereferenceable(1) %5)
  %7 = getelementptr inbounds nuw %class.V3ErrorCode, ptr %3, i32 0, i32 0
  store i8 %6, ptr %7, align 1
  %8 = call noundef zeroext i8 @_ZNK11V3ErrorCodecvNS_2enEEv(ptr noundef nonnull align 1 dereferenceable(1) %3)
  %9 = zext i8 %8 to i32
  call void @llvm.lifetime.start.p0(i64 1, ptr %4) #3
  call void @_ZN11V3ErrorCodeC2ENS_2enE(ptr noundef nonnull align 1 dereferenceable(1) %4, i8 noundef zeroext 0)
  %10 = call noundef zeroext i8 @_ZNK11V3ErrorCodecvNS_2enEEv(ptr noundef nonnull align 1 dereferenceable(1) %4)
  %11 = zext i8 %10 to i32
  %12 = icmp ne i32 %9, %11
  call void @llvm.lifetime.end.p0(i64 1, ptr %4) #3
  call void @llvm.lifetime.end.p0(i64 1, ptr %3) #3
  ret i1 %12
}

; Function Attrs: mustprogress nounwind uwtable
define linkonce_odr dso_local noundef zeroext i8 @_ZNK11V3ErrorCodecvNS_2enEEv(ptr noundef nonnull align 1 dereferenceable(1) %0) #6 comdat align 2 {
  %2 = alloca ptr, align 8
  store ptr %0, ptr %2, align 8, !tbaa !9
  %3 = load ptr, ptr %2, align 8
  %4 = getelementptr inbounds nuw %class.V3ErrorCode, ptr %3, i32 0, i32 0
  %5 = load i8, ptr %4, align 1, !tbaa !15
  ret i8 %5
}

; Function Attrs: mustprogress nounwind uwtable
define linkonce_odr dso_local noundef ptr @_ZNK11V3ErrorCode5asciiEv(ptr noundef nonnull align 1 dereferenceable(1) %0) #6 comdat align 2 {
  %2 = alloca ptr, align 8
  store ptr %0, ptr %2, align 8, !tbaa !9
  %3 = load ptr, ptr %2, align 8
  %4 = getelementptr inbounds nuw %class.V3ErrorCode, ptr %3, i32 0, i32 0
  %5 = load i8, ptr %4, align 1, !tbaa !15
  %6 = zext i8 %5 to i64
  %7 = getelementptr inbounds nuw [122 x ptr], ptr @_ZZNK11V3ErrorCode5asciiEvE5names, i64 0, i64 %6
  %8 = load ptr, ptr %7, align 8, !tbaa !11
  ret ptr %8
}

; Function Attrs: mustprogress nounwind uwtable
define linkonce_odr dso_local void @_ZN11V3ErrorCodeC2Ei(ptr noundef nonnull align 1 dereferenceable(1) %0, i32 noundef %1) unnamed_addr #6 comdat align 2 {
  %3 = alloca ptr, align 8
  %4 = alloca i32, align 4
  store ptr %0, ptr %3, align 8, !tbaa !9
  store i32 %1, ptr %4, align 4, !tbaa !13
  %5 = load ptr, ptr %3, align 8
  %6 = getelementptr inbounds nuw %class.V3ErrorCode, ptr %5, i32 0, i32 0
  %7 = load i32, ptr %4, align 4, !tbaa !13
  %8 = trunc i32 %7 to i8
  store i8 %8, ptr %6, align 1, !tbaa !15
  ret void
}

; Function Attrs: mustprogress uwtable
define dso_local void @_ZN11V3ErrorCodeC2EPKc(ptr noundef nonnull align 1 dereferenceable(1) %0, ptr noundef %1) unnamed_addr #4 align 2 {
  %3 = alloca ptr, align 8
  %4 = alloca ptr, align 8
  %5 = alloca i32, align 4
  %6 = alloca i32, align 4
  %7 = alloca %class.V3ErrorCode, align 1
  %8 = alloca %class.V3ErrorCode, align 1
  store ptr %0, ptr %3, align 8, !tbaa !9
  store ptr %1, ptr %4, align 8, !tbaa !11
  %9 = load ptr, ptr %3, align 8
  call void @llvm.lifetime.start.p0(i64 4, ptr %5) #3
  store i32 0, ptr %5, align 4, !tbaa !13
  br label %10

10:                                               ; preds = %35, %2
  %11 = load i32, ptr %5, align 4, !tbaa !13
  %12 = icmp slt i32 %11, 121
  br i1 %12, label %14, label %13

13:                                               ; preds = %10
  store i32 2, ptr %6, align 4
  br label %38

14:                                               ; preds = %10
  call void @llvm.lifetime.start.p0(i64 1, ptr %7) #3
  %15 = load i32, ptr %5, align 4, !tbaa !13
  call void @_ZN11V3ErrorCodeC2Ei(ptr noundef nonnull align 1 dereferenceable(1) %7, i32 noundef %15)
  %16 = load ptr, ptr %4, align 8, !tbaa !11
  %17 = call noundef ptr @_ZNK11V3ErrorCode5asciiEv(ptr noundef nonnull align 1 dereferenceable(1) %7)
  %18 = call i32 @strcasecmp(ptr noundef %16, ptr noundef %17) #22
  %19 = icmp eq i32 0, %18
  br i1 %19, label %20, label %31

20:                                               ; preds = %14
  %21 = call noundef zeroext i8 @_ZNK11V3ErrorCodecvNS_2enEEv(ptr noundef nonnull align 1 dereferenceable(1) %7)
  %22 = getelementptr inbounds nuw %class.V3ErrorCode, ptr %9, i32 0, i32 0
  store i8 %21, ptr %22, align 1, !tbaa !15
  %23 = call noundef zeroext i1 @_ZNK11V3ErrorCode9isRenamedEv(ptr noundef nonnull align 1 dereferenceable(1) %9)
  br i1 %23, label %24, label %30

24:                                               ; preds = %20
  call void @llvm.lifetime.start.p0(i64 1, ptr %8) #3
  %25 = call i8 @_ZNK11V3ErrorCode9renamedToEv(ptr noundef nonnull align 1 dereferenceable(1) %9)
  %26 = getelementptr inbounds nuw %class.V3ErrorCode, ptr %8, i32 0, i32 0
  store i8 %25, ptr %26, align 1
  %27 = getelementptr inbounds nuw %class.V3ErrorCode, ptr %8, i32 0, i32 0
  %28 = load i8, ptr %27, align 1, !tbaa !15
  %29 = getelementptr inbounds nuw %class.V3ErrorCode, ptr %9, i32 0, i32 0
  store i8 %28, ptr %29, align 1, !tbaa !15
  call void @llvm.lifetime.end.p0(i64 1, ptr %8) #3
  br label %30

30:                                               ; preds = %24, %20
  store i32 1, ptr %6, align 4
  br label %32

31:                                               ; preds = %14
  store i32 0, ptr %6, align 4
  br label %32

32:                                               ; preds = %31, %30
  call void @llvm.lifetime.end.p0(i64 1, ptr %7) #3
  %33 = load i32, ptr %6, align 4
  switch i32 %33, label %38 [
    i32 0, label %34
  ]

34:                                               ; preds = %32
  br label %35

35:                                               ; preds = %34
  %36 = load i32, ptr %5, align 4, !tbaa !13
  %37 = add nsw i32 %36, 1
  store i32 %37, ptr %5, align 4, !tbaa !13
  br label %10, !llvm.loop !18

38:                                               ; preds = %32, %13
  call void @llvm.lifetime.end.p0(i64 4, ptr %5) #3
  %39 = load i32, ptr %6, align 4
  switch i32 %39, label %43 [
    i32 2, label %40
    i32 1, label %42
  ]

40:                                               ; preds = %38
  %41 = getelementptr inbounds nuw %class.V3ErrorCode, ptr %9, i32 0, i32 0
  store i8 5, ptr %41, align 1, !tbaa !15
  br label %42

42:                                               ; preds = %40, %38
  ret void

43:                                               ; preds = %38
  unreachable
}