; Function Attrs: mustprogress nofree nounwind memory(read, argmem: readwrite) uwtable
define dso_local void @_ZN11V3ErrorCodeC2EPKc(ptr noundef nonnull writeonly align 1 captures(none) dereferenceable(1) %0, ptr noundef readonly captures(none) %1) unnamed_addr #3 align 2 {
  br label %3

3:                                                ; preds = %2, %.critedge
  %indvars.iv = phi i64 [ 0, %2 ], [ %indvars.iv.next, %.critedge ]
  %4 = getelementptr inbounds nuw [122 x ptr], ptr @_ZZNK11V3ErrorCode5asciiEvE5names, i64 0, i64 %indvars.iv
  %5 = load ptr, ptr %4, align 8, !tbaa !4
  %6 = tail call i32 @strcasecmp(ptr noundef %1, ptr noundef %5) #29
  %.not = icmp eq i32 %6, 0
  br i1 %.not, label %7, label %.critedge

7:                                                ; preds = %3
  %8 = trunc i64 %indvars.iv to i8
  %9 = icmp eq i64 %indvars.iv, 65
  %spec.store.select = select i1 %9, i8 22, i8 %8
  br label %.thread

.critedge:                                        ; preds = %3
  %indvars.iv.next = add nuw nsw i64 %indvars.iv, 1
  %exitcond.not = icmp eq i64 %indvars.iv.next, 121
  br i1 %exitcond.not, label %.thread, label %3, !llvm.loop !9

.thread:                                          ; preds = %.critedge, %7
  %storemerge = phi i8 [ %spec.store.select, %7 ], [ 5, %.critedge ]
  store i8 %storemerge, ptr %0, align 1
  ret void
}